; Function Attrs: mustprogress uwtable
define dso_local noundef zeroext i1 @_ZN10btSoftBody7rayTestERK9btVector3S2_RNS_8sRayCastE(ptr noundef nonnull align 8 dereferenceable(2064) %this, ptr noundef nonnull align 4 dereferenceable(16) %rayFrom, ptr noundef nonnull align 4 dereferenceable(16) %rayTo, ptr nocapture noundef nonnull align 8 dereferenceable(24) %results) local_unnamed_addr #4 align 2 {
entry:
  %m_size.i = getelementptr inbounds i8, ptr %this, i64 1028
  %0 = load i32, ptr %m_size.i, align 4
  %tobool.not = icmp ne i32 %0, 0
  %m_fdbvt = getelementptr inbounds i8, ptr %this, i64 1608
  %1 = load ptr, ptr %m_fdbvt, align 8
  %cmp.i = icmp eq ptr %1, null
  %or.cond = select i1 %tobool.not, i1 %cmp.i, i1 false
  br i1 %or.cond, label %if.then, label %if.end

if.then:                                          ; preds = %entry
  tail call void @_ZN10btSoftBody18initializeFaceTreeEv(ptr noundef nonnull align 8 dereferenceable(2064) %this)
  br label %if.end

if.end:                                           ; preds = %if.then, %entry
  store ptr %this, ptr %results, align 8
  %fraction = getelementptr inbounds i8, ptr %results, i64 16
  store float 1.000000e+00, ptr %fraction, align 8
  %feature = getelementptr inbounds i8, ptr %results, i64 8
  store i32 0, ptr %feature, align 8
  %index = getelementptr inbounds i8, ptr %results, i64 12
  store i32 -1, ptr %index, align 4
  %call6 = tail call noundef i32 @_ZNK10btSoftBody7rayTestERK9btVector3S2_RfRNS_8eFeature1_ERib(ptr noundef nonnull align 8 dereferenceable(2064) %this, ptr noundef nonnull align 4 dereferenceable(16) %rayFrom, ptr noundef nonnull align 4 dereferenceable(16) %rayTo, ptr noundef nonnull align 4 dereferenceable(4) %fraction, ptr noundef nonnull align 4 dereferenceable(4) %feature, ptr noundef nonnull align 4 dereferenceable(4) %index, i1 noundef zeroext false)
  %cmp = icmp ne i32 %call6, 0
  ret i1 %cmp
}